; Function Attrs: nounwind uwtable
define internal void @local_buffer_write_error_callback(ptr noundef readonly captures(address_is_null) %0) #0 {
  %.not = icmp eq ptr %0, null
  br i1 %.not, label %12, label %2

2:                                                ; preds = %1
  %3 = load i64, ptr %0, align 4
  %4 = getelementptr i8, ptr %0, i64 8
  %.val.i = load i32, ptr %4, align 4
  %.sroa.113.0.extract.shift = lshr i64 %3, 32
  %.sroa.113.0.extract.trunc = trunc nuw i64 %.sroa.113.0.extract.shift to i32
  %.sroa.06.0.extract.trunc = trunc i64 %3 to i32
  %5 = load i32, ptr @MyProcNumber, align 4
  %6 = getelementptr i8, ptr %0, i64 12
  %.val = load i32, ptr %6, align 4
  %7 = tail call ptr @GetRelationPath(i32 noundef %.sroa.113.0.extract.trunc, i32 noundef %.sroa.06.0.extract.trunc, i32 noundef %.val.i, i32 noundef %5, i32 noundef %.val) #16
  %8 = tail call i32 @set_errcontext_domain(ptr noundef null) #16
  %9 = getelementptr inbounds nuw i8, ptr %0, i64 16
  %10 = load i32, ptr %9, align 4
  %11 = tail call i32 (ptr, ...) @errcontext_msg(ptr noundef nonnull @.str.18, i32 noundef %10, ptr noundef %7) #16
  tail call void @pfree(ptr noundef %7) #16
  br label %12

12:                                               ; preds = %2, %1
  ret void
}